target datalayout = "e-m:e-p270:32:32-p271:32:32-p272:64:64-i64:64-i128:128-f80:128-n8:16:32:64-S128"
target triple = "x86_64-pc-linux-gnu"

%struct.ReplicationSlot = type { i8, i8, i32, i8, i8, i32, i32, %struct.ReplicationSlotPersistentData, %struct.LWLock, %struct.ConditionVariable, i32, i64, i64, i64, i64, i64 }
%struct.ReplicationSlotPersistentData = type { %struct.nameData, i32, i32, i32, i32, i64, i32, i64, i64, i8, %struct.nameData, i8, i8 }
%struct.nameData = type { [64 x i8] }
%struct.LWLock = type { i16, %struct.pg_atomic_uint32, %struct.proclist_head }
%struct.pg_atomic_uint32 = type { i32 }
%struct.proclist_head = type { i32, i32 }
%struct.ConditionVariable = type { i8, %struct.proclist_head }

@MyReplicationSlot = dso_local global ptr null, align 8
@.str.6 = private unnamed_addr constant [7 x i8] c"slot.c\00", align 1
@__func__.ReplicationSlotReserveWal = private unnamed_addr constant [26 x i8] c"ReplicationSlotReserveWal\00", align 1
@wal_segment_size = external global i32, align 4

; Function Attrs: inlinehint nounwind uwtable
define internal i32 @tas(ptr noundef %0) #7 {
  %2 = alloca ptr, align 8
  %3 = alloca i8, align 1
  store ptr %0, ptr %2, align 8
  call void @llvm.lifetime.start.p0(i64 1, ptr %3) #12
  store i8 1, ptr %3, align 1
  %4 = load i8, ptr %3, align 1
  %5 = load ptr, ptr %2, align 8
  %6 = call i8 asm sideeffect "\09lock\09\09\09\0A\09xchgb\09$0,$1\09\0A", "=q,=*m,0,*m,~{memory},~{cc},~{dirflag},~{fpsr},~{flags}"(ptr elementtype(i8) %5, i8 %4, ptr elementtype(i8) %5) #12, !srcloc !13
  store i8 %6, ptr %3, align 1
  %7 = load i8, ptr %3, align 1
  %8 = zext i8 %7 to i32
  call void @llvm.lifetime.end.p0(i64 1, ptr %3) #12
  ret i32 %8
}

; Function Attrs: nounwind uwtable
define dso_local void @ReplicationSlotReserveWal() #0 {
  %1 = alloca ptr, align 8
  %2 = alloca i64, align 8
  %3 = alloca i64, align 8
  %4 = alloca i32, align 4
  %5 = alloca i64, align 8
  call void @llvm.lifetime.start.p0(i64 8, ptr %1) #12
  %6 = load ptr, ptr @MyReplicationSlot, align 8
  store ptr %6, ptr %1, align 8
  br label %7

7:                                                ; preds = %57, %0
  br label %8

8:                                                ; preds = %7
  call void @llvm.lifetime.start.p0(i64 8, ptr %2) #12
  call void @llvm.lifetime.start.p0(i64 8, ptr %3) #12
  %9 = load ptr, ptr %1, align 8
  %10 = getelementptr inbounds nuw %struct.ReplicationSlot, ptr %9, i32 0, i32 7
  %11 = getelementptr inbounds nuw %struct.ReplicationSlotPersistentData, ptr %10, i32 0, i32 1
  %12 = load i32, ptr %11, align 8
  %13 = icmp eq i32 %12, 0
  br i1 %13, label %14, label %16

14:                                               ; preds = %8
  %15 = call i64 @GetRedoRecPtr()
  store i64 %15, ptr %3, align 8
  br label %23

16:                                               ; preds = %8
  %17 = call zeroext i1 @RecoveryInProgress()
  br i1 %17, label %18, label %20

18:                                               ; preds = %16
  %19 = call i64 @GetXLogReplayRecPtr(ptr noundef null)
  store i64 %19, ptr %3, align 8
  br label %22

20:                                               ; preds = %16
  %21 = call i64 @GetXLogInsertRecPtr()
  store i64 %21, ptr %3, align 8
  br label %22

22:                                               ; preds = %20, %18
  br label %23

23:                                               ; preds = %22, %14
  %24 = load ptr, ptr %1, align 8
  %25 = getelementptr inbounds nuw %struct.ReplicationSlot, ptr %24, i32 0, i32 0
  %26 = call i32 @tas(ptr noundef %25)
  %27 = icmp ne i32 %26, 0
  br i1 %27, label %28, label %32

28:                                               ; preds = %23
  %29 = load ptr, ptr %1, align 8
  %30 = getelementptr inbounds nuw %struct.ReplicationSlot, ptr %29, i32 0, i32 0
  %31 = call i32 @s_lock(ptr noundef %30, ptr noundef @.str.6, i32 noundef 1474, ptr noundef @__func__.ReplicationSlotReserveWal)
  br label %33

32:                                               ; preds = %23
  br label %33

33:                                               ; preds = %32, %28
  %34 = load i64, ptr %3, align 8
  %35 = load ptr, ptr %1, align 8
  %36 = getelementptr inbounds nuw %struct.ReplicationSlot, ptr %35, i32 0, i32 7
  %37 = getelementptr inbounds nuw %struct.ReplicationSlotPersistentData, ptr %36, i32 0, i32 5
  store i64 %34, ptr %37, align 8
  br label %38

38:                                               ; preds = %33
  call void asm sideeffect "", "~{memory},~{dirflag},~{fpsr},~{flags}"() #12, !srcloc !40
  %39 = load ptr, ptr %1, align 8
  %40 = getelementptr inbounds nuw %struct.ReplicationSlot, ptr %39, i32 0, i32 0
  store i8 0, ptr %40, align 8
  br label %41

41:                                               ; preds = %38
  br label %42

42:                                               ; preds = %41
  call void @ReplicationSlotsComputeRequiredLSN()
  %43 = load ptr, ptr %1, align 8
  %44 = getelementptr inbounds nuw %struct.ReplicationSlot, ptr %43, i32 0, i32 7
  %45 = getelementptr inbounds nuw %struct.ReplicationSlotPersistentData, ptr %44, i32 0, i32 5
  %46 = load i64, ptr %45, align 8
  %47 = load i32, ptr @wal_segment_size, align 4
  %48 = sext i32 %47 to i64
  %49 = udiv i64 %46, %48
  store i64 %49, ptr %2, align 8
  %50 = call i64 @XLogGetLastRemovedSegno()
  %51 = load i64, ptr %2, align 8
  %52 = icmp ult i64 %50, %51
  br i1 %52, label %53, label %54

53:                                               ; preds = %42
  store i32 3, ptr %4, align 4
  br label %55

54:                                               ; preds = %42
  store i32 0, ptr %4, align 4
  br label %55

55:                                               ; preds = %54, %53
  call void @llvm.lifetime.end.p0(i64 8, ptr %3) #12
  call void @llvm.lifetime.end.p0(i64 8, ptr %2) #12
  %56 = load i32, ptr %4, align 4
  switch i32 %56, label %70 [
    i32 0, label %57
    i32 3, label %58
  ]

57:                                               ; preds = %55
  br label %7

58:                                               ; preds = %55
  %59 = call zeroext i1 @RecoveryInProgress()
  br i1 %59, label %69, label %60

60:                                               ; preds = %58
  %61 = load ptr, ptr %1, align 8
  %62 = getelementptr inbounds nuw %struct.ReplicationSlot, ptr %61, i32 0, i32 7
  %63 = getelementptr inbounds nuw %struct.ReplicationSlotPersistentData, ptr %62, i32 0, i32 1
  %64 = load i32, ptr %63, align 8
  %65 = icmp ne i32 %64, 0
  br i1 %65, label %66, label %69

66:                                               ; preds = %60
  call void @llvm.lifetime.start.p0(i64 8, ptr %5) #12
  %67 = call i64 @LogStandbySnapshot()
  store i64 %67, ptr %5, align 8
  %68 = load i64, ptr %5, align 8
  call void @XLogFlush(i64 noundef %68)
  call void @llvm.lifetime.end.p0(i64 8, ptr %5) #12
  br label %69

69:                                               ; preds = %66, %60, %58
  call void @llvm.lifetime.end.p0(i64 8, ptr %1) #12
  ret void

70:                                               ; preds = %55
  unreachable
}