; Function Attrs: nounwind uwtable
define dso_local void @ReplicationSlotReserveWal() local_unnamed_addr #0 {
  %1 = load ptr, ptr @MyReplicationSlot, align 8
  %2 = getelementptr inbounds nuw i8, ptr %1, i64 88
  %3 = getelementptr inbounds nuw i8, ptr %1, i64 104
  br label %4

4:                                                ; preds = %19, %0
  %5 = load i32, ptr %2, align 8
  %6 = icmp eq i32 %5, 0
  br i1 %6, label %7, label %9

7:                                                ; preds = %4
  %8 = tail call i64 @GetRedoRecPtr() #17
  br label %15

9:                                                ; preds = %4
  %10 = tail call zeroext i1 @RecoveryInProgress() #17
  br i1 %10, label %11, label %13

11:                                               ; preds = %9
  %12 = tail call i64 @GetXLogReplayRecPtr(ptr noundef null) #17
  br label %15

13:                                               ; preds = %9
  %14 = tail call i64 @GetXLogInsertRecPtr() #17
  br label %15

15:                                               ; preds = %11, %13, %7
  %.0 = phi i64 [ %8, %7 ], [ %12, %11 ], [ %14, %13 ]
  %16 = tail call i8 asm sideeffect "\09lock\09\09\09\0A\09xchgb\09$0,$1\09\0A", "=q,=*m,0,*m,~{memory},~{cc},~{dirflag},~{fpsr},~{flags}"(ptr nonnull elementtype(i8) %1, i8 1, ptr nonnull elementtype(i8) %1) #17, !srcloc !11
  %.not = icmp eq i8 %16, 0
  br i1 %.not, label %19, label %17

17:                                               ; preds = %15
  %18 = tail call i32 @s_lock(ptr noundef nonnull %1, ptr noundef nonnull @.str.6, i32 noundef 1474, ptr noundef nonnull @__func__.ReplicationSlotReserveWal) #17
  br label %19

19:                                               ; preds = %15, %17
  store i64 %.0, ptr %3, align 8
  tail call void asm sideeffect "", "~{memory},~{dirflag},~{fpsr},~{flags}"() #17, !srcloc !39
  store i8 0, ptr %1, align 8
  tail call void @ReplicationSlotsComputeRequiredLSN()
  %20 = load i64, ptr %3, align 8
  %21 = load i32, ptr @wal_segment_size, align 4
  %22 = sext i32 %21 to i64
  %23 = udiv i64 %20, %22
  %24 = tail call i64 @XLogGetLastRemovedSegno() #17
  %25 = icmp ult i64 %24, %23
  br i1 %25, label %26, label %4

26:                                               ; preds = %19
  %27 = tail call zeroext i1 @RecoveryInProgress() #17
  br i1 %27, label %32, label %28

28:                                               ; preds = %26
  %29 = load i32, ptr %2, align 8
  %.not11 = icmp eq i32 %29, 0
  br i1 %.not11, label %32, label %30

30:                                               ; preds = %28
  %31 = tail call i64 @LogStandbySnapshot() #17
  tail call void @XLogFlush(i64 noundef %31) #17
  br label %32

32:                                               ; preds = %30, %28, %26
  ret void
}